; Function Attrs: nounwind uwtable
define void @Abc_NodeSortCubes(ptr noundef readonly captures(none) %0, ptr noundef captures(none) initializes((4, 8)) %1, ptr noundef captures(none) %2, i32 noundef %3) local_unnamed_addr #0 {
  %5 = getelementptr inbounds nuw i8, ptr %0, i64 56
  %6 = load ptr, ptr %5, align 8, !tbaa !35
  %7 = getelementptr i8, ptr %0, i64 28
  %.val41 = load i32, ptr %7, align 4, !tbaa !78
  %8 = getelementptr inbounds nuw i8, ptr %1, i64 4
  store i32 0, ptr %8, align 4, !tbaa !31
  %9 = load i8, ptr %6, align 1, !tbaa !35
  %.not44 = icmp eq i8 %9, 0
  br i1 %.not44, label %Vec_PtrSort.exit, label %.lr.ph

.lr.ph:                                           ; preds = %4
  %10 = sext i32 %.val41 to i64
  %.phi.trans.insert.i = getelementptr inbounds nuw i8, ptr %1, i64 8
  br label %11

11:                                               ; preds = %.lr.ph, %Vec_PtrPush.exit
  %.045 = phi ptr [ %6, %.lr.ph ], [ %41, %Vec_PtrPush.exit ]
  %12 = getelementptr inbounds i8, ptr %.045, i64 %10
  store i8 0, ptr %12, align 1, !tbaa !35
  %13 = load i32, ptr %8, align 4, !tbaa !31
  %14 = load i32, ptr %1, align 8, !tbaa !44
  %15 = icmp eq i32 %13, %14
  br i1 %15, label %16, label %.Vec_PtrGrow.exit11_crit_edge.i

.Vec_PtrGrow.exit11_crit_edge.i:                  ; preds = %11
  %.pre.i = load ptr, ptr %.phi.trans.insert.i, align 8, !tbaa !33
  br label %Vec_PtrPush.exit

16:                                               ; preds = %11
  %17 = icmp slt i32 %13, 16
  br i1 %17, label %18, label %25

18:                                               ; preds = %16
  %19 = load ptr, ptr %.phi.trans.insert.i, align 8, !tbaa !33
  %.not9.i.i = icmp eq ptr %19, null
  br i1 %.not9.i.i, label %22, label %20

20:                                               ; preds = %18
  %21 = tail call dereferenceable_or_null(128) ptr @realloc(ptr noundef nonnull %19, i64 noundef 128) #21
  br label %Vec_PtrGrow.exit.i

22:                                               ; preds = %18
  %23 = tail call noalias dereferenceable_or_null(128) ptr @malloc(i64 noundef 128) #19
  br label %Vec_PtrGrow.exit.i

Vec_PtrGrow.exit.i:                               ; preds = %22, %20
  %24 = phi ptr [ %21, %20 ], [ %23, %22 ]
  store ptr %24, ptr %.phi.trans.insert.i, align 8, !tbaa !33
  store i32 16, ptr %1, align 8, !tbaa !44
  br label %Vec_PtrPush.exit

25:                                               ; preds = %16
  %26 = shl nuw nsw i32 %13, 1
  %27 = load ptr, ptr %.phi.trans.insert.i, align 8, !tbaa !33
  %.not9.i10.i = icmp eq ptr %27, null
  %28 = zext nneg i32 %26 to i64
  %29 = shl nuw nsw i64 %28, 3
  br i1 %.not9.i10.i, label %32, label %30

30:                                               ; preds = %25
  %31 = tail call ptr @realloc(ptr noundef nonnull %27, i64 noundef %29) #21
  br label %34

32:                                               ; preds = %25
  %33 = tail call noalias ptr @malloc(i64 noundef %29) #19
  br label %34

34:                                               ; preds = %32, %30
  %35 = phi ptr [ %31, %30 ], [ %33, %32 ]
  store ptr %35, ptr %.phi.trans.insert.i, align 8, !tbaa !33
  store i32 %26, ptr %1, align 8, !tbaa !44
  br label %Vec_PtrPush.exit

Vec_PtrPush.exit:                                 ; preds = %.Vec_PtrGrow.exit11_crit_edge.i, %Vec_PtrGrow.exit.i, %34
  %36 = phi ptr [ %.pre.i, %.Vec_PtrGrow.exit11_crit_edge.i ], [ %35, %34 ], [ %24, %Vec_PtrGrow.exit.i ]
  %37 = load i32, ptr %8, align 4, !tbaa !31
  %38 = add nsw i32 %37, 1
  store i32 %38, ptr %8, align 4, !tbaa !31
  %39 = sext i32 %37 to i64
  %40 = getelementptr inbounds ptr, ptr %36, i64 %39
  store ptr %.045, ptr %40, align 8, !tbaa !34
  %41 = getelementptr i8, ptr %12, i64 3
  %42 = load i8, ptr %41, align 1, !tbaa !35
  %.not = icmp eq i8 %42, 0
  br i1 %.not, label %._crit_edge, label %11, !llvm.loop !85

._crit_edge:                                      ; preds = %Vec_PtrPush.exit
  %43 = icmp slt i32 %37, 1
  br i1 %43, label %Vec_PtrSort.exit, label %Vec_PtrSort.exit.sink.split

Vec_PtrSort.exit.sink.split:                      ; preds = %._crit_edge
  %.not35 = icmp eq i32 %3, 0
  %Abc_NodeCompareCubes1.Abc_NodeCompareCubes2 = select i1 %.not35, ptr @Abc_NodeCompareCubes1, ptr @Abc_NodeCompareCubes2
  %44 = getelementptr inbounds nuw i8, ptr %1, i64 8
  %45 = load ptr, ptr %44, align 8, !tbaa !33
  %46 = zext nneg i32 %38 to i64
  tail call void @qsort(ptr noundef %45, i64 noundef %46, i64 noundef 8, ptr noundef nonnull %Abc_NodeCompareCubes1.Abc_NodeCompareCubes2) #20
  br label %Vec_PtrSort.exit

Vec_PtrSort.exit:                                 ; preds = %._crit_edge, %Vec_PtrSort.exit.sink.split, %4
  %.val37 = load i32, ptr %8, align 4, !tbaa !31
  %47 = add nsw i32 %.val41, 3
  %48 = mul nsw i32 %.val37, %47
  %49 = load i32, ptr %2, align 8, !tbaa !15
  %.not.i = icmp slt i32 %49, %48
  %50 = getelementptr i8, ptr %2, i64 8
  %51 = load ptr, ptr %50, align 8, !tbaa !16
  br i1 %.not.i, label %52, label %Vec_StrGrow.exit

52:                                               ; preds = %Vec_PtrSort.exit
  %.not9.i = icmp eq ptr %51, null
  %53 = sext i32 %48 to i64
  br i1 %.not9.i, label %56, label %54

54:                                               ; preds = %52
  %55 = tail call ptr @realloc(ptr noundef nonnull %51, i64 noundef %53) #21
  %.val3646.pre.pre = load i32, ptr %8, align 4, !tbaa !31
  br label %58

56:                                               ; preds = %52
  %57 = tail call noalias ptr @malloc(i64 noundef %53) #19
  br label %58

58:                                               ; preds = %56, %54
  %.val3646.pre = phi i32 [ %.val3646.pre.pre, %54 ], [ %.val37, %56 ]
  %59 = phi ptr [ %55, %54 ], [ %57, %56 ]
  store ptr %59, ptr %50, align 8, !tbaa !16
  store i32 %48, ptr %2, align 8, !tbaa !15
  br label %Vec_StrGrow.exit

Vec_StrGrow.exit:                                 ; preds = %Vec_PtrSort.exit, %58
  %.val39.pre53 = phi ptr [ %59, %58 ], [ %51, %Vec_PtrSort.exit ]
  %.val3646 = phi i32 [ %.val3646.pre, %58 ], [ %.val37, %Vec_PtrSort.exit ]
  %60 = getelementptr i8, ptr %2, i64 8
  %61 = icmp sgt i32 %.val3646, 0
  br i1 %61, label %.lr.ph49, label %.critedge

.lr.ph49:                                         ; preds = %Vec_StrGrow.exit
  %62 = getelementptr i8, ptr %1, i64 8
  %63 = sext i32 %.val41 to i64
  %64 = sext i32 %47 to i64
  br label %65

65:                                               ; preds = %.lr.ph49, %65
  %indvars.iv = phi i64 [ 0, %.lr.ph49 ], [ %indvars.iv.next, %65 ]
  %.03447 = phi ptr [ %.val39.pre53, %.lr.ph49 ], [ %69, %65 ]
  %.val38 = load ptr, ptr %62, align 8, !tbaa !33
  %66 = getelementptr inbounds nuw ptr, ptr %.val38, i64 %indvars.iv
  %67 = load ptr, ptr %66, align 8, !tbaa !34
  %68 = getelementptr inbounds i8, ptr %67, i64 %63
  store i8 32, ptr %68, align 1, !tbaa !35
  tail call void @llvm.memcpy.p0.p0.i64(ptr align 1 %.03447, ptr align 1 %67, i64 %64, i1 false)
  %69 = getelementptr inbounds i8, ptr %.03447, i64 %64
  %indvars.iv.next = add nuw nsw i64 %indvars.iv, 1
  %.val36 = load i32, ptr %8, align 4, !tbaa !31
  %70 = sext i32 %.val36 to i64
  %71 = icmp slt i64 %indvars.iv.next, %70
  br i1 %71, label %65, label %.critedge.loopexit, !llvm.loop !86

.critedge.loopexit:                               ; preds = %65
  %.val39.pre = load ptr, ptr %60, align 8, !tbaa !16
  br label %.critedge

.critedge:                                        ; preds = %.critedge.loopexit, %Vec_StrGrow.exit
  %.val39 = phi ptr [ %.val39.pre53, %Vec_StrGrow.exit ], [ %.val39.pre, %.critedge.loopexit ]
  %.val36.lcssa = phi i32 [ %.val3646, %Vec_StrGrow.exit ], [ %.val36, %.critedge.loopexit ]
  %72 = mul nsw i32 %.val36.lcssa, %47
  %73 = sext i32 %72 to i64
  tail call void @llvm.memcpy.p0.p0.i64(ptr nonnull align 1 %6, ptr align 1 %.val39, i64 %73, i1 false)
  ret void
}